target datalayout = "e-m:e-p270:32:32-p271:32:32-p272:64:64-i64:64-i128:128-f80:128-n8:16:32:64-S128"
target triple = "x86_64-pc-linux-gnu"

%struct.AVFilterContext = type { ptr, ptr, ptr, ptr, ptr, i32, ptr, ptr, i32, ptr, ptr, i32, i32, ptr, ptr, ptr, ptr, i32, ptr, i32, i32 }
%struct.DCTdnoizContext = type { ptr, ptr, [8 x ptr], [8 x [1 x double]], i32, i32, i32, float, float, [2 x [3 x ptr]], [8 x ptr], ptr, i32, i32, i32, i32, i32, ptr, ptr, ptr }
%struct.ThreadData = type { ptr, ptr }

; Function Attrs: nounwind uwtable
define internal i32 @filter_slice(ptr noundef %0, ptr noundef %1, i32 noundef %2, i32 noundef %3) #1 {
  %5 = alloca ptr, align 8
  %6 = alloca ptr, align 8
  %7 = alloca i32, align 4
  %8 = alloca i32, align 4
  %9 = alloca i32, align 4
  %10 = alloca i32, align 4
  %11 = alloca ptr, align 8
  %12 = alloca ptr, align 8
  %13 = alloca i32, align 4
  %14 = alloca i32, align 4
  %15 = alloca i32, align 4
  %16 = alloca i32, align 4
  %17 = alloca i32, align 4
  %18 = alloca i32, align 4
  %19 = alloca i32, align 4
  %20 = alloca i32, align 4
  %21 = alloca i32, align 4
  %22 = alloca i32, align 4
  %23 = alloca ptr, align 8
  %24 = alloca ptr, align 8
  %25 = alloca ptr, align 8
  %26 = alloca ptr, align 8
  store ptr %0, ptr %5, align 8, !tbaa !4
  store ptr %1, ptr %6, align 8, !tbaa !84
  store i32 %2, ptr %7, align 4, !tbaa !35
  store i32 %3, ptr %8, align 4, !tbaa !35
  call void @llvm.lifetime.start.p0(i64 4, ptr %9) #11
  call void @llvm.lifetime.start.p0(i64 4, ptr %10) #11
  call void @llvm.lifetime.start.p0(i64 8, ptr %11) #11
  %27 = load ptr, ptr %5, align 8, !tbaa !4
  %28 = getelementptr inbounds nuw %struct.AVFilterContext, ptr %27, i32 0, i32 9
  %29 = load ptr, ptr %28, align 8, !tbaa !9
  store ptr %29, ptr %11, align 8, !tbaa !22
  call void @llvm.lifetime.start.p0(i64 8, ptr %12) #11
  %30 = load ptr, ptr %6, align 8, !tbaa !84
  store ptr %30, ptr %12, align 8, !tbaa !85
  call void @llvm.lifetime.start.p0(i64 4, ptr %13) #11
  %31 = load ptr, ptr %11, align 8, !tbaa !22
  %32 = getelementptr inbounds nuw %struct.DCTdnoizContext, ptr %31, i32 0, i32 5
  %33 = load i32, ptr %32, align 4, !tbaa !59
  store i32 %33, ptr %13, align 4, !tbaa !35
  call void @llvm.lifetime.start.p0(i64 4, ptr %14) #11
  %34 = load ptr, ptr %11, align 8, !tbaa !22
  %35 = getelementptr inbounds nuw %struct.DCTdnoizContext, ptr %34, i32 0, i32 6
  %36 = load i32, ptr %35, align 8, !tbaa !60
  store i32 %36, ptr %14, align 4, !tbaa !35
  call void @llvm.lifetime.start.p0(i64 4, ptr %15) #11
  %37 = load i32, ptr %14, align 4, !tbaa !35
  %38 = load i32, ptr %7, align 4, !tbaa !35
  %39 = mul nsw i32 %37, %38
  %40 = load i32, ptr %8, align 4, !tbaa !35
  %41 = sdiv i32 %39, %40
  store i32 %41, ptr %15, align 4, !tbaa !35
  call void @llvm.lifetime.start.p0(i64 4, ptr %16) #11
  %42 = load i32, ptr %14, align 4, !tbaa !35
  %43 = load i32, ptr %7, align 4, !tbaa !35
  %44 = add nsw i32 %43, 1
  %45 = mul nsw i32 %42, %44
  %46 = load i32, ptr %8, align 4, !tbaa !35
  %47 = sdiv i32 %45, %46
  store i32 %47, ptr %16, align 4, !tbaa !35
  call void @llvm.lifetime.start.p0(i64 4, ptr %17) #11
  %48 = load i32, ptr %15, align 4, !tbaa !35
  %49 = load ptr, ptr %11, align 8, !tbaa !22
  %50 = getelementptr inbounds nuw %struct.DCTdnoizContext, ptr %49, i32 0, i32 16
  %51 = load i32, ptr %50, align 8, !tbaa !28
  %52 = sub nsw i32 %48, %51
  %53 = add nsw i32 %52, 1
  %54 = icmp sgt i32 %53, 0
  br i1 %54, label %55, label %62

55:                                               ; preds = %4
  %56 = load i32, ptr %15, align 4, !tbaa !35
  %57 = load ptr, ptr %11, align 8, !tbaa !22
  %58 = getelementptr inbounds nuw %struct.DCTdnoizContext, ptr %57, i32 0, i32 16
  %59 = load i32, ptr %58, align 8, !tbaa !28
  %60 = sub nsw i32 %56, %59
  %61 = add nsw i32 %60, 1
  br label %63

62:                                               ; preds = %4
  br label %63

63:                                               ; preds = %62, %55
  %64 = phi i32 [ %61, %55 ], [ 0, %62 ]
  store i32 %64, ptr %17, align 4, !tbaa !35
  call void @llvm.lifetime.start.p0(i64 4, ptr %18) #11
  %65 = load i32, ptr %16, align 4, !tbaa !35
  %66 = load i32, ptr %14, align 4, !tbaa !35
  %67 = load ptr, ptr %11, align 8, !tbaa !22
  %68 = getelementptr inbounds nuw %struct.DCTdnoizContext, ptr %67, i32 0, i32 16
  %69 = load i32, ptr %68, align 8, !tbaa !28
  %70 = sub nsw i32 %66, %69
  %71 = add nsw i32 %70, 1
  %72 = icmp sgt i32 %65, %71
  br i1 %72, label %73, label %80

73:                                               ; preds = %63
  %74 = load i32, ptr %14, align 4, !tbaa !35
  %75 = load ptr, ptr %11, align 8, !tbaa !22
  %76 = getelementptr inbounds nuw %struct.DCTdnoizContext, ptr %75, i32 0, i32 16
  %77 = load i32, ptr %76, align 8, !tbaa !28
  %78 = sub nsw i32 %74, %77
  %79 = add nsw i32 %78, 1
  br label %82

80:                                               ; preds = %63
  %81 = load i32, ptr %16, align 4, !tbaa !35
  br label %82

82:                                               ; preds = %80, %73
  %83 = phi i32 [ %79, %73 ], [ %81, %80 ]
  store i32 %83, ptr %18, align 4, !tbaa !35
  call void @llvm.lifetime.start.p0(i64 4, ptr %19) #11
  %84 = load i32, ptr %18, align 4, !tbaa !35
  %85 = load i32, ptr %17, align 4, !tbaa !35
  %86 = sub nsw i32 %84, %85
  store i32 %86, ptr %19, align 4, !tbaa !35
  call void @llvm.lifetime.start.p0(i64 4, ptr %20) #11
  %87 = load ptr, ptr %11, align 8, !tbaa !22
  %88 = getelementptr inbounds nuw %struct.DCTdnoizContext, ptr %87, i32 0, i32 12
  %89 = load i32, ptr %88, align 8, !tbaa !58
  store i32 %89, ptr %20, align 4, !tbaa !35
  call void @llvm.lifetime.start.p0(i64 4, ptr %21) #11
  %90 = load ptr, ptr %11, align 8, !tbaa !22
  %91 = getelementptr inbounds nuw %struct.DCTdnoizContext, ptr %90, i32 0, i32 12
  %92 = load i32, ptr %91, align 8, !tbaa !58
  store i32 %92, ptr %21, align 4, !tbaa !35
  call void @llvm.lifetime.start.p0(i64 4, ptr %22) #11
  %93 = load ptr, ptr %11, align 8, !tbaa !22
  %94 = getelementptr inbounds nuw %struct.DCTdnoizContext, ptr %93, i32 0, i32 12
  %95 = load i32, ptr %94, align 8, !tbaa !58
  store i32 %95, ptr %22, align 4, !tbaa !35
  call void @llvm.lifetime.start.p0(i64 8, ptr %23) #11
  call void @llvm.lifetime.start.p0(i64 8, ptr %24) #11
  %96 = load ptr, ptr %12, align 8, !tbaa !85
  %97 = getelementptr inbounds nuw %struct.ThreadData, ptr %96, i32 0, i32 0
  %98 = load ptr, ptr %97, align 8, !tbaa !62
  %99 = load i32, ptr %17, align 4, !tbaa !35
  %100 = load i32, ptr %20, align 4, !tbaa !35
  %101 = mul nsw i32 %99, %100
  %102 = sext i32 %101 to i64
  %103 = getelementptr inbounds float, ptr %98, i64 %102
  store ptr %103, ptr %24, align 8, !tbaa !61
  call void @llvm.lifetime.start.p0(i64 8, ptr %25) #11
  %104 = load ptr, ptr %11, align 8, !tbaa !22
  %105 = getelementptr inbounds nuw %struct.DCTdnoizContext, ptr %104, i32 0, i32 11
  %106 = load ptr, ptr %105, align 8, !tbaa !74
  %107 = load i32, ptr %15, align 4, !tbaa !35
  %108 = load i32, ptr %21, align 4, !tbaa !35
  %109 = mul nsw i32 %107, %108
  %110 = sext i32 %109 to i64
  %111 = getelementptr inbounds float, ptr %106, i64 %110
  store ptr %111, ptr %25, align 8, !tbaa !61
  call void @llvm.lifetime.start.p0(i64 8, ptr %26) #11
  %112 = load ptr, ptr %11, align 8, !tbaa !22
  %113 = getelementptr inbounds nuw %struct.DCTdnoizContext, ptr %112, i32 0, i32 10
  %114 = load i32, ptr %7, align 4, !tbaa !35
  %115 = sext i32 %114 to i64
  %116 = getelementptr inbounds [8 x ptr], ptr %113, i64 0, i64 %115
  %117 = load ptr, ptr %116, align 8, !tbaa !61
  store ptr %117, ptr %26, align 8, !tbaa !61
  %118 = load ptr, ptr %26, align 8, !tbaa !61
  %119 = load i32, ptr %19, align 4, !tbaa !35
  %120 = load ptr, ptr %11, align 8, !tbaa !22
  %121 = getelementptr inbounds nuw %struct.DCTdnoizContext, ptr %120, i32 0, i32 16
  %122 = load i32, ptr %121, align 8, !tbaa !28
  %123 = add nsw i32 %119, %122
  %124 = sub nsw i32 %123, 1
  %125 = load i32, ptr %21, align 4, !tbaa !35
  %126 = mul nsw i32 %124, %125
  %127 = sext i32 %126 to i64
  %128 = mul i64 %127, 4
  call void @llvm.memset.p0.i64(ptr align 4 %118, i8 0, i64 %128, i1 false)
  store i32 0, ptr %10, align 4, !tbaa !35
  br label %129

129:                                              ; preds = %182, %82
  %130 = load i32, ptr %10, align 4, !tbaa !35
  %131 = load i32, ptr %19, align 4, !tbaa !35
  %132 = icmp slt i32 %130, %131
  br i1 %132, label %133, label %188

133:                                              ; preds = %129
  store i32 0, ptr %9, align 4, !tbaa !35
  br label %134

134:                                              ; preds = %159, %133
  %135 = load i32, ptr %9, align 4, !tbaa !35
  %136 = load i32, ptr %13, align 4, !tbaa !35
  %137 = load ptr, ptr %11, align 8, !tbaa !22
  %138 = getelementptr inbounds nuw %struct.DCTdnoizContext, ptr %137, i32 0, i32 16
  %139 = load i32, ptr %138, align 8, !tbaa !28
  %140 = sub nsw i32 %136, %139
  %141 = add nsw i32 %140, 1
  %142 = icmp slt i32 %135, %141
  br i1 %142, label %143, label %165

143:                                              ; preds = %134
  %144 = load ptr, ptr %11, align 8, !tbaa !22
  %145 = getelementptr inbounds nuw %struct.DCTdnoizContext, ptr %144, i32 0, i32 17
  %146 = load ptr, ptr %145, align 8, !tbaa !31
  %147 = load ptr, ptr %11, align 8, !tbaa !22
  %148 = load ptr, ptr %24, align 8, !tbaa !61
  %149 = load i32, ptr %9, align 4, !tbaa !35
  %150 = sext i32 %149 to i64
  %151 = getelementptr inbounds float, ptr %148, i64 %150
  %152 = load i32, ptr %20, align 4, !tbaa !35
  %153 = load ptr, ptr %26, align 8, !tbaa !61
  %154 = load i32, ptr %9, align 4, !tbaa !35
  %155 = sext i32 %154 to i64
  %156 = getelementptr inbounds float, ptr %153, i64 %155
  %157 = load i32, ptr %22, align 4, !tbaa !35
  %158 = load i32, ptr %7, align 4, !tbaa !35
  call void %146(ptr noundef %147, ptr noundef %151, i32 noundef %152, ptr noundef %156, i32 noundef %157, i32 noundef %158)
  br label %159

159:                                              ; preds = %143
  %160 = load ptr, ptr %11, align 8, !tbaa !22
  %161 = getelementptr inbounds nuw %struct.DCTdnoizContext, ptr %160, i32 0, i32 14
  %162 = load i32, ptr %161, align 8, !tbaa !34
  %163 = load i32, ptr %9, align 4, !tbaa !35
  %164 = add nsw i32 %163, %162
  store i32 %164, ptr %9, align 4, !tbaa !35
  br label %134, !llvm.loop !87

165:                                              ; preds = %134
  %166 = load ptr, ptr %11, align 8, !tbaa !22
  %167 = getelementptr inbounds nuw %struct.DCTdnoizContext, ptr %166, i32 0, i32 14
  %168 = load i32, ptr %167, align 8, !tbaa !34
  %169 = load i32, ptr %20, align 4, !tbaa !35
  %170 = mul nsw i32 %168, %169
  %171 = load ptr, ptr %24, align 8, !tbaa !61
  %172 = sext i32 %170 to i64
  %173 = getelementptr inbounds float, ptr %171, i64 %172
  store ptr %173, ptr %24, align 8, !tbaa !61
  %174 = load ptr, ptr %11, align 8, !tbaa !22
  %175 = getelementptr inbounds nuw %struct.DCTdnoizContext, ptr %174, i32 0, i32 14
  %176 = load i32, ptr %175, align 8, !tbaa !34
  %177 = load i32, ptr %22, align 4, !tbaa !35
  %178 = mul nsw i32 %176, %177
  %179 = load ptr, ptr %26, align 8, !tbaa !61
  %180 = sext i32 %178 to i64
  %181 = getelementptr inbounds float, ptr %179, i64 %180
  store ptr %181, ptr %26, align 8, !tbaa !61
  br label %182

182:                                              ; preds = %165
  %183 = load ptr, ptr %11, align 8, !tbaa !22
  %184 = getelementptr inbounds nuw %struct.DCTdnoizContext, ptr %183, i32 0, i32 14
  %185 = load i32, ptr %184, align 8, !tbaa !34
  %186 = load i32, ptr %10, align 4, !tbaa !35
  %187 = add nsw i32 %186, %185
  store i32 %187, ptr %10, align 4, !tbaa !35
  br label %129, !llvm.loop !88

188:                                              ; preds = %129
  %189 = load ptr, ptr %11, align 8, !tbaa !22
  %190 = getelementptr inbounds nuw %struct.DCTdnoizContext, ptr %189, i32 0, i32 10
  %191 = load i32, ptr %7, align 4, !tbaa !35
  %192 = sext i32 %191 to i64
  %193 = getelementptr inbounds [8 x ptr], ptr %190, i64 0, i64 %192
  %194 = load ptr, ptr %193, align 8, !tbaa !61
  %195 = load i32, ptr %15, align 4, !tbaa !35
  %196 = load i32, ptr %17, align 4, !tbaa !35
  %197 = sub nsw i32 %195, %196
  %198 = load i32, ptr %22, align 4, !tbaa !35
  %199 = mul nsw i32 %197, %198
  %200 = sext i32 %199 to i64
  %201 = getelementptr inbounds float, ptr %194, i64 %200
  store ptr %201, ptr %26, align 8, !tbaa !61
  %202 = load ptr, ptr %12, align 8, !tbaa !85
  %203 = getelementptr inbounds nuw %struct.ThreadData, ptr %202, i32 0, i32 1
  %204 = load ptr, ptr %203, align 8, !tbaa !64
  %205 = load i32, ptr %15, align 4, !tbaa !35
  %206 = load i32, ptr %21, align 4, !tbaa !35
  %207 = mul nsw i32 %205, %206
  %208 = sext i32 %207 to i64
  %209 = getelementptr inbounds float, ptr %204, i64 %208
  store ptr %209, ptr %23, align 8, !tbaa !61
  %210 = load i32, ptr %15, align 4, !tbaa !35
  store i32 %210, ptr %10, align 4, !tbaa !35
  br label %211

211:                                              ; preds = %252, %188
  %212 = load i32, ptr %10, align 4, !tbaa !35
  %213 = load i32, ptr %16, align 4, !tbaa !35
  %214 = icmp slt i32 %212, %213
  br i1 %214, label %215, label %255

215:                                              ; preds = %211
  store i32 0, ptr %9, align 4, !tbaa !35
  br label %216

216:                                              ; preds = %236, %215
  %217 = load i32, ptr %9, align 4, !tbaa !35
  %218 = load i32, ptr %13, align 4, !tbaa !35
  %219 = icmp slt i32 %217, %218
  br i1 %219, label %220, label %239

220:                                              ; preds = %216
  %221 = load ptr, ptr %26, align 8, !tbaa !61
  %222 = load i32, ptr %9, align 4, !tbaa !35
  %223 = sext i32 %222 to i64
  %224 = getelementptr inbounds float, ptr %221, i64 %223
  %225 = load float, ptr %224, align 4, !tbaa !81
  %226 = load ptr, ptr %25, align 8, !tbaa !61
  %227 = load i32, ptr %9, align 4, !tbaa !35
  %228 = sext i32 %227 to i64
  %229 = getelementptr inbounds float, ptr %226, i64 %228
  %230 = load float, ptr %229, align 4, !tbaa !81
  %231 = fmul nsz float %225, %230
  %232 = load ptr, ptr %23, align 8, !tbaa !61
  %233 = load i32, ptr %9, align 4, !tbaa !35
  %234 = sext i32 %233 to i64
  %235 = getelementptr inbounds float, ptr %232, i64 %234
  store float %231, ptr %235, align 4, !tbaa !81
  br label %236

236:                                              ; preds = %220
  %237 = load i32, ptr %9, align 4, !tbaa !35
  %238 = add nsw i32 %237, 1
  store i32 %238, ptr %9, align 4, !tbaa !35
  br label %216, !llvm.loop !89

239:                                              ; preds = %216
  %240 = load i32, ptr %22, align 4, !tbaa !35
  %241 = load ptr, ptr %26, align 8, !tbaa !61
  %242 = sext i32 %240 to i64
  %243 = getelementptr inbounds float, ptr %241, i64 %242
  store ptr %243, ptr %26, align 8, !tbaa !61
  %244 = load i32, ptr %21, align 4, !tbaa !35
  %245 = load ptr, ptr %23, align 8, !tbaa !61
  %246 = sext i32 %244 to i64
  %247 = getelementptr inbounds float, ptr %245, i64 %246
  store ptr %247, ptr %23, align 8, !tbaa !61
  %248 = load i32, ptr %21, align 4, !tbaa !35
  %249 = load ptr, ptr %25, align 8, !tbaa !61
  %250 = sext i32 %248 to i64
  %251 = getelementptr inbounds float, ptr %249, i64 %250
  store ptr %251, ptr %25, align 8, !tbaa !61
  br label %252

252:                                              ; preds = %239
  %253 = load i32, ptr %10, align 4, !tbaa !35
  %254 = add nsw i32 %253, 1
  store i32 %254, ptr %10, align 4, !tbaa !35
  br label %211, !llvm.loop !90

255:                                              ; preds = %211
  call void @llvm.lifetime.end.p0(i64 8, ptr %26) #11
  call void @llvm.lifetime.end.p0(i64 8, ptr %25) #11
  call void @llvm.lifetime.end.p0(i64 8, ptr %24) #11
  call void @llvm.lifetime.end.p0(i64 8, ptr %23) #11
  call void @llvm.lifetime.end.p0(i64 4, ptr %22) #11
  call void @llvm.lifetime.end.p0(i64 4, ptr %21) #11
  call void @llvm.lifetime.end.p0(i64 4, ptr %20) #11
  call void @llvm.lifetime.end.p0(i64 4, ptr %19) #11
  call void @llvm.lifetime.end.p0(i64 4, ptr %18) #11
  call void @llvm.lifetime.end.p0(i64 4, ptr %17) #11
  call void @llvm.lifetime.end.p0(i64 4, ptr %16) #11
  call void @llvm.lifetime.end.p0(i64 4, ptr %15) #11
  call void @llvm.lifetime.end.p0(i64 4, ptr %14) #11
  call void @llvm.lifetime.end.p0(i64 4, ptr %13) #11
  call void @llvm.lifetime.end.p0(i64 8, ptr %12) #11
  call void @llvm.lifetime.end.p0(i64 8, ptr %11) #11
  call void @llvm.lifetime.end.p0(i64 4, ptr %10) #11
  call void @llvm.lifetime.end.p0(i64 4, ptr %9) #11
  ret i32 0
}